; Function Attrs: mustprogress uwtable
define hidden void @_ZN5boost9container3pmr13pool_resource13do_deallocateEPvmm(ptr nocapture noundef nonnull readonly align 8 dereferenceable(56) %0, ptr noundef %1, i64 noundef %2, i64 noundef %3) local_unnamed_addr #2 align 2 personality ptr @__gxx_personality_v0 {
  %5 = getelementptr inbounds nuw i8, ptr %0, i64 8
  %6 = load i64, ptr %5, align 8, !tbaa !7
  %7 = icmp ugt i64 %2, %6
  br i1 %7, label %8, label %24

8:                                                ; preds = %4
  %9 = getelementptr inbounds nuw i8, ptr %0, i64 16
  %10 = load ptr, ptr %9, align 8, !tbaa !13
  %11 = getelementptr inbounds i8, ptr %1, i64 -32
  %12 = load ptr, ptr %11, align 8, !tbaa !27
  %13 = getelementptr inbounds i8, ptr %1, i64 -24
  %14 = load ptr, ptr %13, align 8, !tbaa !28
  store ptr %12, ptr %14, align 8, !tbaa !27
  %15 = getelementptr inbounds nuw i8, ptr %12, i64 8
  store ptr %14, ptr %15, align 8, !tbaa !28
  %16 = getelementptr inbounds i8, ptr %1, i64 -16
  %17 = load i64, ptr %16, align 8, !tbaa !29
  %18 = load ptr, ptr %10, align 8, !tbaa !14
  %19 = getelementptr inbounds i8, ptr %18, i64 24
  %20 = load ptr, ptr %19, align 8
  invoke void %20(ptr noundef nonnull align 8 dereferenceable(8) %10, ptr noundef nonnull %11, i64 noundef %17, i64 noundef 16)
          to label %_ZN5boost9container3pmr15block_list_baseINS1_17block_list_headerEE10deallocateEPvRNS1_15memory_resourceE.exit unwind label %21

21:                                               ; preds = %8
  %22 = landingpad { ptr, i32 }
          catch ptr null
  %23 = extractvalue { ptr, i32 } %22, 0
  tail call void @__clang_call_terminate(ptr %23) #19
  unreachable

24:                                               ; preds = %4
  %.sroa.speculated.i = tail call i64 @llvm.umax.i64(i64 %2, i64 16)
  %25 = add i64 %.sroa.speculated.i, -1
  %26 = tail call range(i64 0, 65) i64 @llvm.ctlz.i64(i64 %25, i1 false)
  %27 = sub nuw nsw i64 60, %26
  %28 = getelementptr inbounds nuw i8, ptr %0, i64 40
  %29 = load ptr, ptr %28, align 8, !tbaa !16
  store i64 0, ptr %1, align 8
  %30 = getelementptr inbounds nuw %"class.boost::container::pmr::pool_data_t", ptr %29, i64 %27, i32 1
  %31 = load ptr, ptr %30, align 8, !tbaa !18
  store ptr %31, ptr %1, align 8, !tbaa !18
  store ptr %1, ptr %30, align 8, !tbaa !18
  br label %_ZN5boost9container3pmr15block_list_baseINS1_17block_list_headerEE10deallocateEPvRNS1_15memory_resourceE.exit

_ZN5boost9container3pmr15block_list_baseINS1_17block_list_headerEE10deallocateEPvRNS1_15memory_resourceE.exit: ; preds = %8, %24
  ret void
}